; Function Attrs: nounwind uwtable
define internal i32 @cf_he_shutdown(ptr noundef %0, ptr noundef %1, ptr noundef writeonly captures(none) %2) #0 {
  %4 = alloca i8, align 1
  %5 = getelementptr inbounds nuw i8, ptr %0, i64 36
  %6 = load i8, ptr %5, align 4
  %7 = and i8 %6, 1
  %.not = icmp eq i8 %7, 0
  br i1 %.not, label %.preheader67, label %11

.preheader67:                                     ; preds = %3
  %8 = getelementptr inbounds nuw i8, ptr %0, i64 16
  %9 = load ptr, ptr %8, align 8, !tbaa !105
  %10 = getelementptr inbounds nuw i8, ptr %9, i64 32
  br label %12

11:                                               ; preds = %3
  store i8 1, ptr %2, align 1, !tbaa !124
  br label %78

12:                                               ; preds = %.preheader67, %35
  %13 = phi i1 [ true, %.preheader67 ], [ false, %35 ]
  %.04668 = phi i64 [ 0, %.preheader67 ], [ 1, %35 ]
  %14 = getelementptr inbounds nuw [2 x ptr], ptr %10, i64 0, i64 %.04668
  %15 = load ptr, ptr %14, align 8, !tbaa !115
  call void @llvm.lifetime.start.p0(i64 1, ptr nonnull %4) #10
  store i8 0, ptr %4, align 1, !tbaa !124
  %.not63 = icmp eq ptr %15, null
  br i1 %.not63, label %35, label %16

16:                                               ; preds = %12
  %17 = getelementptr inbounds nuw i8, ptr %15, i64 40
  %18 = load ptr, ptr %17, align 8, !tbaa !117
  %.not64 = icmp eq ptr %18, null
  br i1 %.not64, label %35, label %19

19:                                               ; preds = %16
  %20 = getelementptr inbounds nuw i8, ptr %15, i64 100
  %21 = load i8, ptr %20, align 4
  %22 = and i8 %21, 16
  %.not65 = icmp eq i8 %22, 0
  br i1 %.not65, label %23, label %35

23:                                               ; preds = %19
  %24 = load ptr, ptr %18, align 8, !tbaa !112
  %25 = getelementptr inbounds nuw i8, ptr %24, i64 40
  %26 = load ptr, ptr %25, align 8, !tbaa !168
  %27 = call i32 %26(ptr noundef nonnull %18, ptr noundef %1, ptr noundef nonnull %4) #10
  %28 = getelementptr inbounds nuw i8, ptr %15, i64 92
  store i32 %27, ptr %28, align 4, !tbaa !146
  %.not66 = icmp eq i32 %27, 0
  br i1 %.not66, label %29, label %32

29:                                               ; preds = %23
  %30 = load i8, ptr %4, align 1, !tbaa !124, !range !150, !noundef !151
  %31 = trunc nuw i8 %30 to i1
  br i1 %31, label %32, label %35

32:                                               ; preds = %29, %23
  %33 = load i8, ptr %20, align 4
  %34 = or i8 %33, 16
  store i8 %34, ptr %20, align 4
  br label %35

35:                                               ; preds = %29, %32, %12, %16, %19
  call void @llvm.lifetime.end.p0(i64 1, ptr nonnull %4) #10
  br i1 %13, label %12, label %36, !llvm.loop !169

36:                                               ; preds = %35
  store i8 1, ptr %2, align 1, !tbaa !124
  br label %37

37:                                               ; preds = %36, %47
  %38 = phi i8 [ 1, %36 ], [ %48, %47 ]
  %39 = phi i1 [ true, %36 ], [ false, %47 ]
  %.14769 = phi i64 [ 0, %36 ], [ 1, %47 ]
  %40 = getelementptr inbounds nuw [2 x ptr], ptr %10, i64 0, i64 %.14769
  %41 = load ptr, ptr %40, align 8, !tbaa !115
  %.not61 = icmp eq ptr %41, null
  br i1 %.not61, label %47, label %42

42:                                               ; preds = %37
  %43 = getelementptr inbounds nuw i8, ptr %41, i64 100
  %44 = load i8, ptr %43, align 4
  %45 = and i8 %44, 16
  %.not62 = icmp eq i8 %45, 0
  br i1 %.not62, label %46, label %47

46:                                               ; preds = %42
  store i8 0, ptr %2, align 1, !tbaa !124
  br label %47

47:                                               ; preds = %37, %42, %46
  %48 = phi i8 [ %38, %37 ], [ %38, %42 ], [ 0, %46 ]
  br i1 %39, label %37, label %49, !llvm.loop !170

49:                                               ; preds = %47
  %50 = trunc nuw i8 %48 to i1
  br i1 %50, label %.preheader, label %.loopexit

.preheader:                                       ; preds = %49, %57
  %.04571 = phi i32 [ %.1, %57 ], [ 0, %49 ]
  %51 = phi i1 [ false, %57 ], [ true, %49 ]
  %.24870 = phi i64 [ 1, %57 ], [ 0, %49 ]
  %52 = getelementptr inbounds nuw [2 x ptr], ptr %10, i64 0, i64 %.24870
  %53 = load ptr, ptr %52, align 8, !tbaa !115
  %.not59 = icmp eq ptr %53, null
  br i1 %.not59, label %57, label %54

54:                                               ; preds = %.preheader
  %55 = getelementptr inbounds nuw i8, ptr %53, i64 92
  %56 = load i32, ptr %55, align 4, !tbaa !146
  %.not60 = icmp eq i32 %56, 0
  %spec.select = select i1 %.not60, i32 %.04571, i32 %56
  br label %57

57:                                               ; preds = %54, %.preheader
  %.1 = phi i32 [ %.04571, %.preheader ], [ %spec.select, %54 ]
  br i1 %51, label %.preheader, label %.loopexit, !llvm.loop !171

.loopexit:                                        ; preds = %57, %49
  %.2 = phi i32 [ 0, %49 ], [ %.1, %57 ]
  %.not56 = icmp eq ptr %1, null
  br i1 %.not56, label %78, label %58

58:                                               ; preds = %.loopexit
  %59 = getelementptr inbounds nuw i8, ptr %1, i64 2658
  %60 = load i64, ptr %59, align 2
  %61 = and i64 %60, 2147483648
  %.not57 = icmp eq i64 %61, 0
  br i1 %.not57, label %78, label %62

62:                                               ; preds = %58
  %63 = getelementptr inbounds nuw i8, ptr %1, i64 4864
  %64 = load ptr, ptr %63, align 8, !tbaa !109
  %.not58 = icmp eq ptr %64, null
  br i1 %.not58, label %70, label %65

65:                                               ; preds = %62
  %66 = getelementptr inbounds nuw i8, ptr %64, i64 8
  %67 = load i32, ptr %66, align 8, !tbaa !110
  %68 = icmp sgt i32 %67, 0
  %69 = icmp ne ptr %0, null
  %or.cond = and i1 %69, %68
  br i1 %or.cond, label %71, label %78

70:                                               ; preds = %62
  %.old1.not = icmp eq ptr %0, null
  br i1 %.old1.not, label %78, label %71

71:                                               ; preds = %65, %70
  %72 = load ptr, ptr %0, align 8, !tbaa !112
  %73 = getelementptr inbounds nuw i8, ptr %72, i64 12
  %74 = load i32, ptr %73, align 4, !tbaa !113
  %75 = icmp sgt i32 %74, 0
  br i1 %75, label %76, label %78

76:                                               ; preds = %71
  %77 = zext nneg i8 %48 to i32
  call void (ptr, ptr, ptr, ...) @Curl_trc_cf_infof(ptr noundef nonnull %1, ptr noundef nonnull %0, ptr noundef nonnull @.str.25, i32 noundef %.2, i32 noundef %77) #10
  br label %78

78:                                               ; preds = %.loopexit, %58, %65, %70, %71, %76, %11
  %.0 = phi i32 [ 0, %11 ], [ %.2, %76 ], [ %.2, %71 ], [ %.2, %70 ], [ %.2, %65 ], [ %.2, %58 ], [ %.2, %.loopexit ]
  ret i32 %.0
}